; Function Attrs: nounwind sspstrong uwtable
define internal void @ahci_check_cmd_bh(ptr noundef captures(none) %0) #0 {
  %2 = getelementptr inbounds nuw i8, ptr %0, i64 2448
  %3 = load ptr, ptr %2, align 8
  tail call void @qemu_bh_delete(ptr noundef %3) #14
  store ptr null, ptr %2, align 8
  %4 = getelementptr inbounds nuw i8, ptr %0, i64 2440
  %5 = load ptr, ptr %4, align 8
  %6 = getelementptr inbounds nuw i8, ptr %0, i64 2360
  %7 = load i32, ptr %6, align 8
  tail call fastcc void @check_cmd(ptr noundef %5, i32 noundef %7)
  ret void
}